; Function Attrs: nounwind uwtable
define internal fastcc void @PrintOutput(ptr noundef %0, double noundef %1, ptr noundef %2) unnamed_addr #0 {
  %4 = alloca i64, align 8
  %5 = alloca i32, align 4
  %6 = alloca double, align 8
  call void @llvm.lifetime.start.p0(i64 8, ptr nonnull %4) #13
  call void @llvm.lifetime.start.p0(i64 4, ptr nonnull %5) #13
  call void @llvm.lifetime.start.p0(i64 8, ptr nonnull %6) #13
  %7 = tail call ptr @N_VGetArrayPointer(ptr noundef %2) #13
  %8 = call i32 @CVodeGetNumSteps(ptr noundef %0, ptr noundef nonnull %4) #13
  %9 = icmp slt i32 %8, 0
  br i1 %9, label %10, label %check_retval.exit

10:                                               ; preds = %3
  %11 = load ptr, ptr @stderr, align 8, !tbaa !9
  %12 = call i32 (ptr, ptr, ...) @fprintf(ptr noundef %11, ptr noundef nonnull @.str.74, ptr noundef nonnull @.str.44, i32 noundef %8) #17
  br label %check_retval.exit

check_retval.exit:                                ; preds = %3, %10
  %13 = call i32 @CVodeGetLastOrder(ptr noundef %0, ptr noundef nonnull %5) #13
  %14 = icmp slt i32 %13, 0
  br i1 %14, label %15, label %check_retval.exit9

15:                                               ; preds = %check_retval.exit
  %16 = load ptr, ptr @stderr, align 8, !tbaa !9
  %17 = call i32 (ptr, ptr, ...) @fprintf(ptr noundef %16, ptr noundef nonnull @.str.74, ptr noundef nonnull @.str.45, i32 noundef %13) #17
  br label %check_retval.exit9

check_retval.exit9:                               ; preds = %check_retval.exit, %15
  %18 = call i32 @CVodeGetLastStep(ptr noundef %0, ptr noundef nonnull %6) #13
  %19 = icmp slt i32 %18, 0
  br i1 %19, label %20, label %check_retval.exit11

20:                                               ; preds = %check_retval.exit9
  %21 = load ptr, ptr @stderr, align 8, !tbaa !9
  %22 = call i32 (ptr, ptr, ...) @fprintf(ptr noundef %21, ptr noundef nonnull @.str.74, ptr noundef nonnull @.str.46, i32 noundef %18) #17
  br label %check_retval.exit11

check_retval.exit11:                              ; preds = %check_retval.exit9, %20
  %23 = load i32, ptr %5, align 4, !tbaa !33
  %24 = load double, ptr %6, align 8, !tbaa !11
  %25 = load i64, ptr %4, align 8, !tbaa !34
  %26 = call i32 (ptr, ...) @printf(ptr noundef nonnull dereferenceable(1) @.str.47, double noundef %1, i32 noundef %23, double noundef %24, i64 noundef %25)
  %27 = call i32 (ptr, ...) @printf(ptr noundef nonnull dereferenceable(1) @.str.48)
  %28 = load double, ptr %7, align 8, !tbaa !11
  %29 = getelementptr inbounds nuw i8, ptr %7, i64 8
  %30 = load double, ptr %29, align 8, !tbaa !11
  %31 = getelementptr inbounds nuw i8, ptr %7, i64 16
  %32 = load double, ptr %31, align 8, !tbaa !11
  %33 = call i32 (ptr, ...) @printf(ptr noundef nonnull dereferenceable(1) @.str.49, double noundef %28, double noundef %30, double noundef %32)
  call void @llvm.lifetime.end.p0(i64 8, ptr nonnull %6) #13
  call void @llvm.lifetime.end.p0(i64 4, ptr nonnull %5) #13
  call void @llvm.lifetime.end.p0(i64 8, ptr nonnull %4) #13
  ret void
}